target datalayout = "e-m:e-p270:32:32-p271:32:32-p272:64:64-i64:64-i128:128-f80:128-n8:16:32:64-S128"
target triple = "x86_64-pc-linux-gnu"

%struct.RBasic = type { i64, i64 }
%struct.RArray = type { %struct.RBasic, %union.anon }
%union.anon = type { %struct.anon }
%struct.anon = type { i64, %union.anon.0, ptr }
%union.anon.0 = type { i64 }

@.str.147 = private unnamed_addr constant [21 x i8] c"given block not used\00", align 1

; Function Attrs: inlinehint nounwind sspstrong willreturn memory(read) uwtable
define internal i64 @RB_FL_TEST_RAW(i64 noundef %0, i64 noundef %1) #2 {
  %3 = alloca i64, align 8
  %4 = alloca i64, align 8
  store i64 %0, ptr %3, align 8, !tbaa !7
  store i64 %1, ptr %4, align 8, !tbaa !7
  %5 = load i64, ptr %3, align 8, !tbaa !7
  %6 = inttoptr i64 %5 to ptr
  %7 = getelementptr inbounds nuw %struct.RBasic, ptr %6, i32 0, i32 0
  %8 = load i64, ptr %7, align 8, !tbaa !11
  %9 = load i64, ptr %4, align 8, !tbaa !7
  %10 = and i64 %8, %9
  ret i64 %10
}

; Function Attrs: inlinehint nounwind sspstrong willreturn memory(read) uwtable
define internal ptr @rb_array_const_ptr(i64 noundef %0) #2 {
  %2 = alloca ptr, align 8
  %3 = alloca i64, align 8
  store i64 %0, ptr %3, align 8, !tbaa !7
  %4 = load i64, ptr %3, align 8, !tbaa !7
  %5 = call zeroext i1 @RB_FL_ANY_RAW(i64 noundef %4, i64 noundef 8192) #26
  br i1 %5, label %6, label %11

6:                                                ; preds = %1
  %7 = load i64, ptr %3, align 8, !tbaa !7
  %8 = inttoptr i64 %7 to ptr
  %9 = getelementptr inbounds nuw %struct.RArray, ptr %8, i32 0, i32 1
  %10 = getelementptr inbounds [1 x i64], ptr %9, i64 0, i64 0
  store ptr %10, ptr %2, align 8
  br label %17

11:                                               ; preds = %1
  %12 = load i64, ptr %3, align 8, !tbaa !7
  %13 = inttoptr i64 %12 to ptr
  %14 = getelementptr inbounds nuw %struct.RArray, ptr %13, i32 0, i32 1
  %15 = getelementptr inbounds nuw %struct.anon, ptr %14, i32 0, i32 2
  %16 = load ptr, ptr %15, align 8, !tbaa !13
  store ptr %16, ptr %2, align 8
  br label %17

17:                                               ; preds = %11, %6
  %18 = load ptr, ptr %2, align 8
  ret ptr %18
}

; Function Attrs: inlinehint nounwind sspstrong willreturn memory(read) uwtable
define internal i64 @RARRAY_EMBED_LEN(i64 noundef %0) #2 {
  %2 = alloca i64, align 8
  %3 = alloca i64, align 8
  store i64 %0, ptr %2, align 8, !tbaa !7
  call void @llvm.lifetime.start.p0(i64 8, ptr %3) #27
  %4 = load i64, ptr %2, align 8, !tbaa !7
  %5 = inttoptr i64 %4 to ptr
  %6 = getelementptr inbounds nuw %struct.RBasic, ptr %5, i32 0, i32 0
  %7 = load i64, ptr %6, align 8, !tbaa !11
  store i64 %7, ptr %3, align 8, !tbaa !7
  %8 = load i64, ptr %3, align 8, !tbaa !7
  %9 = and i64 %8, 4161536
  store i64 %9, ptr %3, align 8, !tbaa !7
  %10 = load i64, ptr %3, align 8, !tbaa !7
  %11 = lshr i64 %10, 15
  store i64 %11, ptr %3, align 8, !tbaa !7
  %12 = load i64, ptr %3, align 8, !tbaa !7
  call void @llvm.lifetime.end.p0(i64 8, ptr %3) #27
  ret i64 %12
}

; Function Attrs: inlinehint nounwind sspstrong willreturn memory(read) uwtable
define internal zeroext i1 @RB_FL_ANY_RAW(i64 noundef %0, i64 noundef %1) #2 {
  %3 = alloca i64, align 8
  %4 = alloca i64, align 8
  store i64 %0, ptr %3, align 8, !tbaa !7
  store i64 %1, ptr %4, align 8, !tbaa !7
  %5 = load i64, ptr %3, align 8, !tbaa !7
  %6 = load i64, ptr %4, align 8, !tbaa !7
  %7 = call i64 @RB_FL_TEST_RAW(i64 noundef %5, i64 noundef %6) #26
  %8 = icmp ne i64 %7, 0
  ret i1 %8
}

; Function Attrs: inlinehint nounwind sspstrong willreturn memory(none) uwtable
define internal zeroext i1 @RB_TEST(i64 noundef %0) #11 {
  %2 = alloca i64, align 8
  store i64 %0, ptr %2, align 8, !tbaa !7
  %3 = load i64, ptr %2, align 8, !tbaa !7
  %4 = and i64 %3, -5
  %5 = icmp ne i64 %4, 0
  ret i1 %5
}

; Function Attrs: inlinehint nounwind sspstrong willreturn memory(read) uwtable
define internal i64 @RARRAY_AREF(i64 noundef %0, i64 noundef %1) #2 {
  %3 = alloca i64, align 8
  %4 = alloca i64, align 8
  %5 = alloca i64, align 8
  store i64 %0, ptr %3, align 8, !tbaa !7
  store i64 %1, ptr %4, align 8, !tbaa !7
  call void @llvm.lifetime.start.p0(i64 8, ptr %5) #27
  %6 = load i64, ptr %3, align 8, !tbaa !7
  %7 = call ptr @rb_array_const_ptr(i64 noundef %6) #26
  %8 = load i64, ptr %4, align 8, !tbaa !7
  %9 = getelementptr i64, ptr %7, i64 %8
  %10 = load i64, ptr %9, align 8, !tbaa !7
  store i64 %10, ptr %5, align 8, !tbaa !7
  %11 = load i64, ptr %5, align 8, !tbaa !7
  call void @llvm.lifetime.end.p0(i64 8, ptr %5) #27
  ret i64 %11
}

; Function Attrs: inlinehint nounwind sspstrong uwtable
define internal i32 @rb_check_arity(i32 noundef %0, i32 noundef %1, i32 noundef %2) #1 {
  %4 = alloca i32, align 4
  %5 = alloca i32, align 4
  %6 = alloca i32, align 4
  store i32 %0, ptr %4, align 4, !tbaa !31
  store i32 %1, ptr %5, align 4, !tbaa !31
  store i32 %2, ptr %6, align 4, !tbaa !31
  %7 = load i32, ptr %4, align 4, !tbaa !31
  %8 = load i32, ptr %5, align 4, !tbaa !31
  %9 = icmp slt i32 %7, %8
  br i1 %9, label %17, label %10

10:                                               ; preds = %3
  %11 = load i32, ptr %6, align 4, !tbaa !31
  %12 = icmp ne i32 %11, -1
  br i1 %12, label %13, label %21

13:                                               ; preds = %10
  %14 = load i32, ptr %4, align 4, !tbaa !31
  %15 = load i32, ptr %6, align 4, !tbaa !31
  %16 = icmp sgt i32 %14, %15
  br i1 %16, label %17, label %21

17:                                               ; preds = %13, %3
  %18 = load i32, ptr %4, align 4, !tbaa !31
  %19 = load i32, ptr %5, align 4, !tbaa !31
  %20 = load i32, ptr %6, align 4, !tbaa !31
  call void @rb_error_arity(i32 noundef %18, i32 noundef %19, i32 noundef %20) #30
  unreachable

21:                                               ; preds = %13, %10
  %22 = load i32, ptr %4, align 4, !tbaa !31
  ret i32 %22
}

; Function Attrs: inlinehint nounwind sspstrong willreturn memory(read) uwtable
define internal i64 @rb_array_len(i64 noundef %0) #2 {
  %2 = alloca i64, align 8
  %3 = alloca i64, align 8
  store i64 %0, ptr %3, align 8, !tbaa !7
  %4 = load i64, ptr %3, align 8, !tbaa !7
  %5 = call zeroext i1 @RB_FL_ANY_RAW(i64 noundef %4, i64 noundef 8192) #26
  br i1 %5, label %6, label %9

6:                                                ; preds = %1
  %7 = load i64, ptr %3, align 8, !tbaa !7
  %8 = call i64 @RARRAY_EMBED_LEN(i64 noundef %7) #26
  store i64 %8, ptr %2, align 8
  br label %15

9:                                                ; preds = %1
  %10 = load i64, ptr %3, align 8, !tbaa !7
  %11 = inttoptr i64 %10 to ptr
  %12 = getelementptr inbounds nuw %struct.RArray, ptr %11, i32 0, i32 1
  %13 = getelementptr inbounds nuw %struct.anon, ptr %12, i32 0, i32 0
  %14 = load i64, ptr %13, align 8, !tbaa !13
  store i64 %14, ptr %2, align 8
  br label %15

15:                                               ; preds = %9, %6
  %16 = load i64, ptr %2, align 8
  ret i64 %16
}

; Function Attrs: nounwind sspstrong uwtable
define internal i64 @rb_ary_none_p(i32 noundef %0, ptr noundef %1, i64 noundef %2) #0 {
  %4 = alloca i64, align 8
  %5 = alloca i32, align 4
  %6 = alloca ptr, align 8
  %7 = alloca i64, align 8
  %8 = alloca i64, align 8
  %9 = alloca i64, align 8
  %10 = alloca i32, align 4
  store i32 %0, ptr %5, align 4, !tbaa !31
  store ptr %1, ptr %6, align 8, !tbaa !14
  store i64 %2, ptr %7, align 8, !tbaa !7
  call void @llvm.lifetime.start.p0(i64 8, ptr %8) #27
  call void @llvm.lifetime.start.p0(i64 8, ptr %9) #27
  %11 = load i64, ptr %7, align 8, !tbaa !7
  %12 = call i64 @rb_array_len(i64 noundef %11) #26
  store i64 %12, ptr %9, align 8, !tbaa !7
  %13 = load i32, ptr %5, align 4, !tbaa !31
  %14 = call i32 @rb_check_arity(i32 noundef %13, i32 noundef 0, i32 noundef 1)
  %15 = load i64, ptr %9, align 8, !tbaa !7
  %16 = icmp ne i64 %15, 0
  br i1 %16, label %18, label %17

17:                                               ; preds = %3
  store i64 20, ptr %4, align 8
  store i32 1, ptr %10, align 4
  br label %85

18:                                               ; preds = %3
  %19 = load i32, ptr %5, align 4, !tbaa !31
  %20 = icmp ne i32 %19, 0
  br i1 %20, label %21, label %46

21:                                               ; preds = %18
  %22 = call i32 @rb_block_given_p()
  %23 = icmp ne i32 %22, 0
  br i1 %23, label %24, label %25

24:                                               ; preds = %21
  call void (ptr, ...) @rb_warn(ptr noundef @.str.147) #34
  br label %25

25:                                               ; preds = %24, %21
  store i64 0, ptr %8, align 8, !tbaa !7
  br label %26

26:                                               ; preds = %42, %25
  %27 = load i64, ptr %8, align 8, !tbaa !7
  %28 = load i64, ptr %7, align 8, !tbaa !7
  %29 = call i64 @rb_array_len(i64 noundef %28) #26
  %30 = icmp slt i64 %27, %29
  br i1 %30, label %31, label %45

31:                                               ; preds = %26
  %32 = load ptr, ptr %6, align 8, !tbaa !14
  %33 = getelementptr i64, ptr %32, i64 0
  %34 = load i64, ptr %33, align 8, !tbaa !7
  %35 = load i64, ptr %7, align 8, !tbaa !7
  %36 = load i64, ptr %8, align 8, !tbaa !7
  %37 = call i64 @RARRAY_AREF(i64 noundef %35, i64 noundef %36) #26
  %38 = call i64 (i64, i64, i32, ...) @rb_funcall(i64 noundef %34, i64 noundef 141, i32 noundef 1, i64 noundef %37)
  %39 = call zeroext i1 @RB_TEST(i64 noundef %38) #29
  br i1 %39, label %40, label %41

40:                                               ; preds = %31
  store i64 0, ptr %4, align 8
  store i32 1, ptr %10, align 4
  br label %85

41:                                               ; preds = %31
  br label %42

42:                                               ; preds = %41
  %43 = load i64, ptr %8, align 8, !tbaa !7
  %44 = add i64 %43, 1
  store i64 %44, ptr %8, align 8, !tbaa !7
  br label %26, !llvm.loop !148

45:                                               ; preds = %26
  br label %84

46:                                               ; preds = %18
  %47 = call i32 @rb_block_given_p()
  %48 = icmp ne i32 %47, 0
  br i1 %48, label %65, label %49

49:                                               ; preds = %46
  store i64 0, ptr %8, align 8, !tbaa !7
  br label %50

50:                                               ; preds = %61, %49
  %51 = load i64, ptr %8, align 8, !tbaa !7
  %52 = load i64, ptr %9, align 8, !tbaa !7
  %53 = icmp slt i64 %51, %52
  br i1 %53, label %54, label %64

54:                                               ; preds = %50
  %55 = load i64, ptr %7, align 8, !tbaa !7
  %56 = load i64, ptr %8, align 8, !tbaa !7
  %57 = call i64 @RARRAY_AREF(i64 noundef %55, i64 noundef %56) #26
  %58 = call zeroext i1 @RB_TEST(i64 noundef %57) #29
  br i1 %58, label %59, label %60

59:                                               ; preds = %54
  store i64 0, ptr %4, align 8
  store i32 1, ptr %10, align 4
  br label %85

60:                                               ; preds = %54
  br label %61

61:                                               ; preds = %60
  %62 = load i64, ptr %8, align 8, !tbaa !7
  %63 = add i64 %62, 1
  store i64 %63, ptr %8, align 8, !tbaa !7
  br label %50, !llvm.loop !149

64:                                               ; preds = %50
  br label %83

65:                                               ; preds = %46
  store i64 0, ptr %8, align 8, !tbaa !7
  br label %66

66:                                               ; preds = %79, %65
  %67 = load i64, ptr %8, align 8, !tbaa !7
  %68 = load i64, ptr %7, align 8, !tbaa !7
  %69 = call i64 @rb_array_len(i64 noundef %68) #26
  %70 = icmp slt i64 %67, %69
  br i1 %70, label %71, label %82

71:                                               ; preds = %66
  %72 = load i64, ptr %7, align 8, !tbaa !7
  %73 = load i64, ptr %8, align 8, !tbaa !7
  %74 = call i64 @RARRAY_AREF(i64 noundef %72, i64 noundef %73) #26
  %75 = call i64 @rb_yield(i64 noundef %74)
  %76 = call zeroext i1 @RB_TEST(i64 noundef %75) #29
  br i1 %76, label %77, label %78

77:                                               ; preds = %71
  store i64 0, ptr %4, align 8
  store i32 1, ptr %10, align 4
  br label %85

78:                                               ; preds = %71
  br label %79

79:                                               ; preds = %78
  %80 = load i64, ptr %8, align 8, !tbaa !7
  %81 = add i64 %80, 1
  store i64 %81, ptr %8, align 8, !tbaa !7
  br label %66, !llvm.loop !150

82:                                               ; preds = %66
  br label %83

83:                                               ; preds = %82, %64
  br label %84

84:                                               ; preds = %83, %45
  store i64 20, ptr %4, align 8
  store i32 1, ptr %10, align 4
  br label %85

85:                                               ; preds = %84, %77, %59, %40, %17
  call void @llvm.lifetime.end.p0(i64 8, ptr %9) #27
  call void @llvm.lifetime.end.p0(i64 8, ptr %8) #27
  %86 = load i64, ptr %4, align 8
  ret i64 %86
}