; Function Attrs: nounwind sspstrong uwtable
define internal range(i64 0, 21) i64 @rb_ary_none_p(i32 noundef %0, ptr noundef readonly captures(none) %1, i64 noundef %2) #4 {
  %4 = inttoptr i64 %2 to ptr
  %5 = load i64, ptr %4, align 8, !tbaa !7
  %6 = and i64 %5, 8192
  %.not.i = icmp eq i64 %6, 0
  br i1 %.not.i, label %10, label %7

7:                                                ; preds = %3
  %8 = lshr i64 %5, 15
  %9 = and i64 %8, 127
  br label %rb_array_len.exit

10:                                               ; preds = %3
  %11 = getelementptr inbounds nuw i8, ptr %4, i64 16
  %12 = load i64, ptr %11, align 8, !tbaa !12
  br label %rb_array_len.exit

rb_array_len.exit:                                ; preds = %7, %10
  %.0.i = phi i64 [ %9, %7 ], [ %12, %10 ]
  %or.cond.not = icmp ult i32 %0, 2
  br i1 %or.cond.not, label %rb_check_arity.exit, label %13

13:                                               ; preds = %rb_array_len.exit
  tail call void @rb_error_arity(i32 noundef %0, i32 noundef 0, i32 noundef 1) #23
  unreachable

rb_check_arity.exit:                              ; preds = %rb_array_len.exit
  %.not = icmp eq i64 %.0.i, 0
  br i1 %.not, label %.loopexit, label %14

14:                                               ; preds = %rb_check_arity.exit
  %.not22 = icmp eq i32 %0, 0
  %15 = tail call i32 @rb_block_given_p() #24
  %.not23 = icmp eq i32 %15, 0
  br i1 %.not22, label %37, label %16

16:                                               ; preds = %14
  br i1 %.not23, label %18, label %17

17:                                               ; preds = %16
  tail call void (ptr, ...) @rb_warn(ptr noundef nonnull @.str.147) #30
  br label %18

18:                                               ; preds = %17, %16
  %19 = getelementptr inbounds nuw i8, ptr %4, i64 16
  %20 = getelementptr inbounds nuw i8, ptr %4, i64 32
  br label %21

21:                                               ; preds = %RARRAY_AREF.exit, %18
  %.020 = phi i64 [ 0, %18 ], [ %36, %RARRAY_AREF.exit ]
  %22 = load i64, ptr %4, align 8, !tbaa !7
  %23 = and i64 %22, 8192
  %.not.i25 = icmp eq i64 %23, 0
  br i1 %.not.i25, label %rb_array_len.exit27, label %rb_array_len.exit27.thread

rb_array_len.exit27:                              ; preds = %21
  %24 = load i64, ptr %19, align 8, !tbaa !12
  %25 = icmp slt i64 %.020, %24
  br i1 %25, label %29, label %.loopexit

rb_array_len.exit27.thread:                       ; preds = %21
  %26 = lshr i64 %22, 15
  %27 = and i64 %26, 127
  %28 = icmp samesign ult i64 %.020, %27
  br i1 %28, label %RARRAY_AREF.exit, label %.loopexit

29:                                               ; preds = %rb_array_len.exit27
  %30 = load ptr, ptr %20, align 8, !tbaa !12
  br label %RARRAY_AREF.exit

RARRAY_AREF.exit:                                 ; preds = %rb_array_len.exit27.thread, %29
  %.0.i.i = phi ptr [ %30, %29 ], [ %19, %rb_array_len.exit27.thread ]
  %31 = load i64, ptr %1, align 8, !tbaa !13
  %32 = getelementptr i64, ptr %.0.i.i, i64 %.020
  %33 = load i64, ptr %32, align 8, !tbaa !13
  %34 = tail call i64 (i64, i64, i32, ...) @rb_funcall(i64 noundef %31, i64 noundef 141, i32 noundef 1, i64 noundef %33) #24
  %35 = and i64 %34, -5
  %.not40 = icmp eq i64 %35, 0
  %36 = add nuw nsw i64 %.020, 1
  br i1 %.not40, label %21, label %.loopexit, !llvm.loop !163

37:                                               ; preds = %14
  br i1 %.not23, label %.preheader, label %.preheader43

.preheader43:                                     ; preds = %37
  %38 = getelementptr inbounds nuw i8, ptr %4, i64 16
  %39 = getelementptr inbounds nuw i8, ptr %4, i64 32
  br label %56

.preheader:                                       ; preds = %37
  %40 = icmp sgt i64 %.0.i, 0
  br i1 %40, label %.lr.ph, label %.loopexit

.lr.ph:                                           ; preds = %.preheader
  %41 = load i64, ptr %4, align 8, !tbaa !7
  %42 = and i64 %41, 8192
  %.not.i.i28 = icmp eq i64 %42, 0
  %43 = getelementptr inbounds nuw i8, ptr %4, i64 16
  br i1 %.not.i.i28, label %.lr.ph.split.us, label %RARRAY_AREF.exit30

.lr.ph.split.us:                                  ; preds = %.lr.ph
  %44 = getelementptr inbounds nuw i8, ptr %4, i64 32
  %45 = load ptr, ptr %44, align 8, !tbaa !12
  br label %RARRAY_AREF.exit30.us

RARRAY_AREF.exit30.us:                            ; preds = %49, %.lr.ph.split.us
  %.148.us = phi i64 [ 0, %.lr.ph.split.us ], [ %50, %49 ]
  %46 = getelementptr i64, ptr %45, i64 %.148.us
  %47 = load i64, ptr %46, align 8, !tbaa !13
  %48 = and i64 %47, -5
  %.not42.us = icmp eq i64 %48, 0
  br i1 %.not42.us, label %49, label %.loopexit

49:                                               ; preds = %RARRAY_AREF.exit30.us
  %50 = add nuw nsw i64 %.148.us, 1
  %exitcond57.not = icmp eq i64 %50, %.0.i
  br i1 %exitcond57.not, label %.loopexit, label %RARRAY_AREF.exit30.us, !llvm.loop !164

51:                                               ; preds = %RARRAY_AREF.exit30
  %52 = add nuw nsw i64 %.148, 1
  %exitcond.not = icmp eq i64 %52, %.0.i
  br i1 %exitcond.not, label %.loopexit, label %RARRAY_AREF.exit30, !llvm.loop !164

RARRAY_AREF.exit30:                               ; preds = %.lr.ph, %51
  %.148 = phi i64 [ %52, %51 ], [ 0, %.lr.ph ]
  %53 = getelementptr i64, ptr %43, i64 %.148
  %54 = load i64, ptr %53, align 8, !tbaa !13
  %55 = and i64 %54, -5
  %.not42 = icmp eq i64 %55, 0
  br i1 %.not42, label %51, label %.loopexit

56:                                               ; preds = %RARRAY_AREF.exit36, %.preheader43
  %.2 = phi i64 [ %70, %RARRAY_AREF.exit36 ], [ 0, %.preheader43 ]
  %57 = load i64, ptr %4, align 8, !tbaa !7
  %58 = and i64 %57, 8192
  %.not.i31 = icmp eq i64 %58, 0
  br i1 %.not.i31, label %rb_array_len.exit33, label %rb_array_len.exit33.thread

rb_array_len.exit33:                              ; preds = %56
  %59 = load i64, ptr %38, align 8, !tbaa !12
  %60 = icmp slt i64 %.2, %59
  br i1 %60, label %64, label %.loopexit

rb_array_len.exit33.thread:                       ; preds = %56
  %61 = lshr i64 %57, 15
  %62 = and i64 %61, 127
  %63 = icmp samesign ult i64 %.2, %62
  br i1 %63, label %RARRAY_AREF.exit36, label %.loopexit

64:                                               ; preds = %rb_array_len.exit33
  %65 = load ptr, ptr %39, align 8, !tbaa !12
  br label %RARRAY_AREF.exit36

RARRAY_AREF.exit36:                               ; preds = %rb_array_len.exit33.thread, %64
  %.0.i.i35 = phi ptr [ %65, %64 ], [ %38, %rb_array_len.exit33.thread ]
  %66 = getelementptr i64, ptr %.0.i.i35, i64 %.2
  %67 = load i64, ptr %66, align 8, !tbaa !13
  %68 = tail call i64 @rb_yield(i64 noundef %67) #24
  %69 = and i64 %68, -5
  %.not41 = icmp eq i64 %69, 0
  %70 = add nuw nsw i64 %.2, 1
  br i1 %.not41, label %56, label %.loopexit, !llvm.loop !165

.loopexit:                                        ; preds = %rb_array_len.exit27.thread, %rb_array_len.exit27, %RARRAY_AREF.exit, %rb_array_len.exit33.thread, %rb_array_len.exit33, %RARRAY_AREF.exit36, %RARRAY_AREF.exit30, %51, %RARRAY_AREF.exit30.us, %49, %.preheader, %rb_check_arity.exit
  %.0 = phi i64 [ 20, %rb_check_arity.exit ], [ 20, %.preheader ], [ 0, %RARRAY_AREF.exit30.us ], [ 20, %49 ], [ 0, %RARRAY_AREF.exit30 ], [ 20, %51 ], [ 20, %rb_array_len.exit33.thread ], [ 20, %rb_array_len.exit33 ], [ 0, %RARRAY_AREF.exit36 ], [ 20, %rb_array_len.exit27.thread ], [ 20, %rb_array_len.exit27 ], [ 0, %RARRAY_AREF.exit ]
  ret i64 %.0
}